target datalayout = "e-m:e-p270:32:32-p271:32:32-p272:64:64-i64:64-i128:128-f80:128-n8:16:32:64-S128"
target triple = "x86_64-pc-linux-gnu"

%struct._DOT11DECRYPT_CONTEXT = type { ptr, [64 x %struct._DOT11DECRYPT_KEY_ITEM], i64, [32 x i8], i64 }
%struct._DOT11DECRYPT_KEY_ITEM = type { i8, %union.DOT11DECRYPT_KEY_ITEMDATA, %struct.DOT11DECRYPT_KEY_ITEMDATA_TK, %struct.DOT11DECRYPT_KEY_ITEMDATA_MSK, %struct.DOT11DECRYPT_KEY_ITEMDATA_PWD }
%union.DOT11DECRYPT_KEY_ITEMDATA = type { %struct.DOT11DECRYPT_KEY_ITEMDATA_WEP, [104 x i8] }
%struct.DOT11DECRYPT_KEY_ITEMDATA_WEP = type { [32 x i8], i64 }
%struct.DOT11DECRYPT_KEY_ITEMDATA_TK = type { [32 x i8], i8 }
%struct.DOT11DECRYPT_KEY_ITEMDATA_MSK = type { [128 x i8], i8 }
%struct.DOT11DECRYPT_KEY_ITEMDATA_PWD = type { [63 x i8], i64, [32 x i8], i64 }

@.str = private unnamed_addr constant [13 x i8] c"dot11decrypt\00", align 1
@.str.1 = private unnamed_addr constant [26 x i8] c"epan/crypt/dot11decrypt.c\00", align 1
@.str.8 = private unnamed_addr constant [13 x i8] c"NULL context\00", align 1
@__func__.Dot11DecryptDestroyContext = private unnamed_addr constant [27 x i8] c"Dot11DecryptDestroyContext\00", align 1
@__func__.Dot11DecryptCleanKeys = private unnamed_addr constant [22 x i8] c"Dot11DecryptCleanKeys\00", align 1

; Function Attrs: alwaysinline nounwind
define internal ptr @memset.inline(ptr %0, i32 %1, i64 %2) #2 {
  %4 = alloca ptr, align 8
  %5 = alloca i32, align 4
  %6 = alloca i64, align 8
  store ptr %0, ptr %4, align 8
  store i32 %1, ptr %5, align 4
  store i64 %2, ptr %6, align 8
  %7 = load ptr, ptr %4, align 8
  %8 = load i32, ptr %5, align 4
  %9 = load i64, ptr %6, align 8
  %10 = load ptr, ptr %4, align 8
  %11 = call i64 @llvm.objectsize.i64.p0(ptr %10, i1 false, i1 true, i1 true)
  %12 = call ptr @__memset_chk(ptr noundef %7, i32 noundef %8, i64 noundef %9, i64 noundef %11) #16
  ret ptr %12
}

; Function Attrs: null_pointer_is_valid sspstrong uwtable
define internal void @Dot11DecryptCleanSecAssoc(ptr noundef %0) #0 {
  %2 = alloca ptr, align 8
  store ptr %0, ptr %2, align 8
  %3 = load ptr, ptr %2, align 8
  %4 = getelementptr inbounds nuw %struct._DOT11DECRYPT_CONTEXT, ptr %3, i32 0, i32 0
  %5 = load ptr, ptr %4, align 8
  %6 = icmp ne ptr %5, null
  br i1 %6, label %7, label %13

7:                                                ; preds = %1
  %8 = load ptr, ptr %2, align 8
  %9 = getelementptr inbounds nuw %struct._DOT11DECRYPT_CONTEXT, ptr %8, i32 0, i32 0
  %10 = load ptr, ptr %9, align 8
  call void @g_hash_table_destroy(ptr noundef %10)
  %11 = load ptr, ptr %2, align 8
  %12 = getelementptr inbounds nuw %struct._DOT11DECRYPT_CONTEXT, ptr %11, i32 0, i32 0
  store ptr null, ptr %12, align 8
  br label %13

13:                                               ; preds = %7, %1
  ret void
}

; Function Attrs: null_pointer_is_valid sspstrong uwtable
define internal void @Dot11DecryptCleanKeys(ptr noundef %0) #0 {
  %2 = alloca ptr, align 8
  store ptr %0, ptr %2, align 8
  %3 = load ptr, ptr %2, align 8
  %4 = icmp eq ptr %3, null
  br i1 %4, label %5, label %8

5:                                                ; preds = %1
  br label %6

6:                                                ; preds = %5
  call void (ptr, i32, ptr, i64, ptr, ptr, ...) @ws_log_full(ptr noundef @.str, i32 noundef 5, ptr noundef @.str.1, i64 noundef 1096, ptr noundef @__func__.Dot11DecryptCleanKeys, ptr noundef @.str.8)
  br label %7

7:                                                ; preds = %6
  br label %16

8:                                                ; preds = %1
  %9 = load ptr, ptr %2, align 8
  %10 = getelementptr inbounds nuw %struct._DOT11DECRYPT_CONTEXT, ptr %9, i32 0, i32 1
  %11 = getelementptr inbounds [64 x %struct._DOT11DECRYPT_KEY_ITEM], ptr %10, i64 0, i64 0
  %12 = call ptr @memset.inline(ptr noundef %11, i32 noundef 0, i64 noundef 27648) #16
  %13 = load ptr, ptr %2, align 8
  %14 = getelementptr inbounds nuw %struct._DOT11DECRYPT_CONTEXT, ptr %13, i32 0, i32 2
  store i64 0, ptr %14, align 8
  br label %15

15:                                               ; preds = %8
  br label %16

16:                                               ; preds = %7, %15
  ret void
}

; Function Attrs: null_pointer_is_valid sspstrong uwtable
define i32 @Dot11DecryptDestroyContext(ptr noundef %0) #0 {
  %2 = alloca i32, align 4
  %3 = alloca ptr, align 8
  store ptr %0, ptr %3, align 8
  %4 = load ptr, ptr %3, align 8
  %5 = icmp eq ptr %4, null
  br i1 %5, label %6, label %9

6:                                                ; preds = %1
  br label %7

7:                                                ; preds = %6
  call void (ptr, i32, ptr, i64, ptr, ptr, ...) @ws_log_full(ptr noundef @.str, i32 noundef 5, ptr noundef @.str.1, i64 noundef 1189, ptr noundef @__func__.Dot11DecryptDestroyContext, ptr noundef @.str.8)
  br label %8

8:                                                ; preds = %7
  store i32 1, ptr %2, align 4
  br label %14

9:                                                ; preds = %1
  %10 = load ptr, ptr %3, align 8
  call void @Dot11DecryptCleanKeys(ptr noundef %10)
  %11 = load ptr, ptr %3, align 8
  call void @Dot11DecryptCleanSecAssoc(ptr noundef %11)
  br label %12

12:                                               ; preds = %9
  br label %13

13:                                               ; preds = %12
  store i32 0, ptr %2, align 4
  br label %14

14:                                               ; preds = %13, %8
  %15 = load i32, ptr %2, align 4
  ret i32 %15
}