; Function Attrs: null_pointer_is_valid sspstrong uwtable
define range(i32 0, 2) i32 @Dot11DecryptDestroyContext(ptr noundef %0) local_unnamed_addr #0 {
  %2 = icmp eq ptr %0, null
  br i1 %2, label %3, label %4

3:                                                ; preds = %1
  tail call void (ptr, i32, ptr, i64, ptr, ptr, ...) @ws_log_full(ptr noundef nonnull @.str, i32 noundef 5, ptr noundef nonnull @.str.1, i64 noundef 1189, ptr noundef nonnull @__func__.Dot11DecryptDestroyContext, ptr noundef nonnull @.str.8)
  br label %Dot11DecryptCleanSecAssoc.exit

4:                                                ; preds = %1
  %5 = getelementptr inbounds nuw i8, ptr %0, i64 8
  tail call void @llvm.memset.p0.i64(ptr noundef nonnull align 1 dereferenceable(27648) %5, i8 noundef 0, i64 noundef 27648, i1 noundef false) #15
  %6 = getelementptr inbounds nuw i8, ptr %0, i64 27656
  store i64 0, ptr %6, align 8
  %7 = load ptr, ptr %0, align 8
  %.not.i = icmp eq ptr %7, null
  br i1 %.not.i, label %Dot11DecryptCleanSecAssoc.exit, label %8

8:                                                ; preds = %4
  tail call void @g_hash_table_destroy(ptr noundef nonnull %7)
  store ptr null, ptr %0, align 8
  br label %Dot11DecryptCleanSecAssoc.exit

Dot11DecryptCleanSecAssoc.exit:                   ; preds = %8, %4, %3
  %.0 = phi i32 [ 1, %3 ], [ 0, %4 ], [ 0, %8 ]
  ret i32 %.0
}